libQt6WebView.so.6:NonQt
libQt6WebView.so.6:Qt_6
libQt6WebView.so.6:Qt_6_PRIVATE_API
libQt6WebView.so.6:_ZN14QWebViewPlugin11qt_metacallEN11QMetaObject4CallEiPPv@@Qt_6_PRIVATE_API
libQt6WebView.so.6:_ZN14QWebViewPlugin11qt_metacastEPKc@@Qt_6_PRIVATE_API
libQt6WebView.so.6:_ZN14QWebViewPluginC1EP7QObject@@Qt_6_PRIVATE_API
libQt6WebView.so.6:_ZN14QWebViewPluginC2EP7QObject@@Qt_6_PRIVATE_API
libQt6WebView.so.6:_ZN14QWebViewPluginD0Ev@@Qt_6_PRIVATE_API
libQt6WebView.so.6:_ZN14QWebViewPluginD1Ev@@Qt_6_PRIVATE_API
libQt6WebView.so.6:_ZN14QWebViewPluginD2Ev@@Qt_6_PRIVATE_API
libQt6WebView.so.6:_ZN16QAbstractWebView10urlChangedERK4QUrl@@Qt_6_PRIVATE_API
libQt6WebView.so.6:_ZN16QAbstractWebView11cookieAddedERK7QStringS2_@@Qt_6_PRIVATE_API
libQt6WebView.so.6:_ZN16QAbstractWebView11qt_metacallEN11QMetaObject4CallEiPPv@@Qt_6_PRIVATE_API
libQt6WebView.so.6:_ZN16QAbstractWebView11qt_metacastEPKc@@Qt_6_PRIVATE_API
libQt6WebView.so.6:_ZN16QAbstractWebView12requestFocusEb@@Qt_6_PRIVATE_API
libQt6WebView.so.6:_ZN16QAbstractWebView12titleChangedERK7QString@@Qt_6_PRIVATE_API
libQt6WebView.so.6:_ZN16QAbstractWebView13cookieRemovedERK7QStringS2_@@Qt_6_PRIVATE_API
libQt6WebView.so.6:_ZN16QAbstractWebView14loadingChangedERK26QWebViewLoadRequestPrivate@@Qt_6_PRIVATE_API
libQt6WebView.so.6:_ZN16QAbstractWebView16javaScriptResultEiRK8QVariant@@Qt_6_PRIVATE_API
libQt6WebView.so.6:_ZN16QAbstractWebView19loadProgressChangedEi@@Qt_6_PRIVATE_API
libQt6WebView.so.6:_ZN16QAbstractWebView20httpUserAgentChangedERK7QString@@Qt_6_PRIVATE_API
libQt6WebView.so.6:_ZN16QWebViewSettings11qt_metacallEN11QMetaObject4CallEiPPv@@Qt_6_PRIVATE_API
libQt6WebView.so.6:_ZN16QWebViewSettings11qt_metacastEPKc@@Qt_6_PRIVATE_API
libQt6WebView.so.6:_ZN16QWebViewSettings18setAllowFileAccessEb@@Qt_6_PRIVATE_API
libQt6WebView.so.6:_ZN16QWebViewSettings20setJavaScriptEnabledEb@@Qt_6_PRIVATE_API
libQt6WebView.so.6:_ZN16QWebViewSettings22allowFileAccessChangedEv@@Qt_6_PRIVATE_API
libQt6WebView.so.6:_ZN16QWebViewSettings22setLocalStorageEnabledEb@@Qt_6_PRIVATE_API
libQt6WebView.so.6:_ZN16QWebViewSettings24javaScriptEnabledChangedEv@@Qt_6_PRIVATE_API
libQt6WebView.so.6:_ZN16QWebViewSettings26localStorageEnabledChangedEv@@Qt_6_PRIVATE_API
libQt6WebView.so.6:_ZN16QWebViewSettings32setLocalContentCanAccessFileUrlsEb@@Qt_6_PRIVATE_API
libQt6WebView.so.6:_ZN16QWebViewSettings36localContentCanAccessFileUrlsChangedEv@@Qt_6_PRIVATE_API
libQt6WebView.so.6:_ZN16QWebViewSettingsC1EP24QAbstractWebViewSettings@@Qt_6_PRIVATE_API
libQt6WebView.so.6:_ZN16QWebViewSettingsC2EP24QAbstractWebViewSettings@@Qt_6_PRIVATE_API
libQt6WebView.so.6:_ZN16QWebViewSettingsD0Ev@@Qt_6_PRIVATE_API
libQt6WebView.so.6:_ZN16QWebViewSettingsD1Ev@@Qt_6_PRIVATE_API
libQt6WebView.so.6:_ZN16QWebViewSettingsD2Ev@@Qt_6_PRIVATE_API
libQt6WebView.so.6:_ZN24QAbstractWebViewSettings11qt_metacallEN11QMetaObject4CallEiPPv@@Qt_6_PRIVATE_API
libQt6WebView.so.6:_ZN24QAbstractWebViewSettings11qt_metacastEPKc@@Qt_6_PRIVATE_API
libQt6WebView.so.6:_ZN26QWebViewLoadRequestPrivateC1ERK4QUrlN8QWebView10LoadStatusERK7QString@@Qt_6_PRIVATE_API
libQt6WebView.so.6:_ZN26QWebViewLoadRequestPrivateC1Ev@@Qt_6_PRIVATE_API
libQt6WebView.so.6:_ZN26QWebViewLoadRequestPrivateC2ERK4QUrlN8QWebView10LoadStatusERK7QString@@Qt_6_PRIVATE_API
libQt6WebView.so.6:_ZN26QWebViewLoadRequestPrivateC2Ev@@Qt_6_PRIVATE_API
libQt6WebView.so.6:_ZN26QWebViewLoadRequestPrivateD1Ev@@Qt_6_PRIVATE_API
libQt6WebView.so.6:_ZN26QWebViewLoadRequestPrivateD2Ev@@Qt_6_PRIVATE_API
libQt6WebView.so.6:_ZN8QWebView10setVisibleEb@@Qt_6_PRIVATE_API
libQt6WebView.so.6:_ZN8QWebView10urlChangedEv@@Qt_6_PRIVATE_API
libQt6WebView.so.6:_ZN8QWebView11cookieAddedERK7QStringS2_@@Qt_6_PRIVATE_API
libQt6WebView.so.6:_ZN8QWebView11qt_metacallEN11QMetaObject4CallEiPPv@@Qt_6_PRIVATE_API
libQt6WebView.so.6:_ZN8QWebView11qt_metacastEPKc@@Qt_6_PRIVATE_API
libQt6WebView.so.6:_ZN8QWebView11setGeometryERK5QRect@@Qt_6_PRIVATE_API
libQt6WebView.so.6:_ZN8QWebView12deleteCookieERK7QStringS2_@@Qt_6_PRIVATE_API
libQt6WebView.so.6:_ZN8QWebView12onUrlChangedERK4QUrl@@Qt_6_PRIVATE_API
libQt6WebView.so.6:_ZN8QWebView12requestFocusEb@@Qt_6_PRIVATE_API
libQt6WebView.so.6:_ZN8QWebView12titleChangedEv@@Qt_6_PRIVATE_API
libQt6WebView.so.6:_ZN8QWebView12updatePolishEv@@Qt_6_PRIVATE_API
libQt6WebView.so.6:_ZN8QWebView13cookieRemovedERK7QStringS2_@@Qt_6_PRIVATE_API
libQt6WebView.so.6:_ZN8QWebView13setParentViewEP7QObject@@Qt_6_PRIVATE_API
libQt6WebView.so.6:_ZN8QWebView13setVisibilityEN7QWindow10VisibilityE@@Qt_6_PRIVATE_API
libQt6WebView.so.6:_ZN8QWebView14loadingChangedERK26QWebViewLoadRequestPrivate@@Qt_6_PRIVATE_API
libQt6WebView.so.6:_ZN8QWebView14onTitleChangedERK7QString@@Qt_6_PRIVATE_API
libQt6WebView.so.6:_ZN8QWebView16deleteAllCookiesEv@@Qt_6_PRIVATE_API
libQt6WebView.so.6:_ZN8QWebView16javaScriptResultEiRK8QVariant@@Qt_6_PRIVATE_API
libQt6WebView.so.6:_ZN8QWebView16onLoadingChangedERK26QWebViewLoadRequestPrivate@@Qt_6_PRIVATE_API
libQt6WebView.so.6:_ZN8QWebView16setHttpUserAgentERK7QString@@Qt_6_PRIVATE_API
libQt6WebView.so.6:_ZN8QWebView19loadProgressChangedEv@@Qt_6_PRIVATE_API
libQt6WebView.so.6:_ZN8QWebView20httpUserAgentChangedEv@@Qt_6_PRIVATE_API
libQt6WebView.so.6:_ZN8QWebView20runJavaScriptPrivateERK7QStringi@@Qt_6_PRIVATE_API
libQt6WebView.so.6:_ZN8QWebView21onLoadProgressChangedEi@@Qt_6_PRIVATE_API
libQt6WebView.so.6:_ZN8QWebView22onHttpUserAgentChangedERK7QString@@Qt_6_PRIVATE_API
libQt6WebView.so.6:_ZN8QWebView4initEv@@Qt_6_PRIVATE_API
libQt6WebView.so.6:_ZN8QWebView4stopEv@@Qt_6_PRIVATE_API
libQt6WebView.so.6:_ZN8QWebView6goBackEv@@Qt_6_PRIVATE_API
libQt6WebView.so.6:_ZN8QWebView6reloadEv@@Qt_6_PRIVATE_API
libQt6WebView.so.6:_ZN8QWebView6setUrlERK4QUrl@@Qt_6_PRIVATE_API
libQt6WebView.so.6:_ZN8QWebView8loadHtmlERK7QStringRK4QUrl@@Qt_6_PRIVATE_API
libQt6WebView.so.6:_ZN8QWebView8setFocusEb@@Qt_6_PRIVATE_API
libQt6WebView.so.6:_ZN8QWebView9goForwardEv@@Qt_6_PRIVATE_API
libQt6WebView.so.6:_ZN8QWebView9setCookieERK7QStringS2_S2_@@Qt_6_PRIVATE_API
libQt6WebView.so.6:_ZN8QWebViewC1EP7QObject@@Qt_6_PRIVATE_API
libQt6WebView.so.6:_ZN8QWebViewC2EP7QObject@@Qt_6_PRIVATE_API
libQt6WebView.so.6:_ZN8QWebViewD0Ev@@Qt_6_PRIVATE_API
libQt6WebView.so.6:_ZN8QWebViewD1Ev@@Qt_6_PRIVATE_API
libQt6WebView.so.6:_ZN8QWebViewD2Ev@@Qt_6_PRIVATE_API
libQt6WebView.so.6:_ZN9QtWebView10initializeEv@@Qt_6
libQt6WebView.so.6:_ZNK14QWebViewPlugin10metaObjectEv@@Qt_6_PRIVATE_API
libQt6WebView.so.6:_ZNK14QWebViewPlugin7prepareEv@@Qt_6_PRIVATE_API
libQt6WebView.so.6:_ZNK16QAbstractWebView10metaObjectEv@@Qt_6_PRIVATE_API
libQt6WebView.so.6:_ZNK16QWebViewSettings10metaObjectEv@@Qt_6_PRIVATE_API
libQt6WebView.so.6:_ZNK16QWebViewSettings15allowFileAccessEv@@Qt_6_PRIVATE_API
libQt6WebView.so.6:_ZNK16QWebViewSettings17javaScriptEnabledEv@@Qt_6_PRIVATE_API
libQt6WebView.so.6:_ZNK16QWebViewSettings19localStorageEnabledEv@@Qt_6_PRIVATE_API
libQt6WebView.so.6:_ZNK16QWebViewSettings29localContentCanAccessFileUrlsEv@@Qt_6_PRIVATE_API
libQt6WebView.so.6:_ZNK24QAbstractWebViewSettings10metaObjectEv@@Qt_6_PRIVATE_API
libQt6WebView.so.6:_ZNK8QWebView10metaObjectEv@@Qt_6_PRIVATE_API
libQt6WebView.so.6:_ZNK8QWebView10parentViewEv@@Qt_6_PRIVATE_API
libQt6WebView.so.6:_ZNK8QWebView11getSettingsEv@@Qt_6_PRIVATE_API
libQt6WebView.so.6:_ZNK8QWebView12canGoForwardEv@@Qt_6_PRIVATE_API
libQt6WebView.so.6:_ZNK8QWebView12loadProgressEv@@Qt_6_PRIVATE_API
libQt6WebView.so.6:_ZNK8QWebView13httpUserAgentEv@@Qt_6_PRIVATE_API
libQt6WebView.so.6:_ZNK8QWebView3urlEv@@Qt_6_PRIVATE_API
libQt6WebView.so.6:_ZNK8QWebView5titleEv@@Qt_6_PRIVATE_API
libQt6WebView.so.6:_ZNK8QWebView9canGoBackEv@@Qt_6_PRIVATE_API
libQt6WebView.so.6:_ZNK8QWebView9isLoadingEv@@Qt_6_PRIVATE_API
libQt6WebView.so.6:_ZThn16_N8QWebView12deleteCookieERK7QStringS2_@@Qt_6_PRIVATE_API
libQt6WebView.so.6:_ZThn16_N8QWebView16deleteAllCookiesEv@@Qt_6_PRIVATE_API
libQt6WebView.so.6:_ZThn16_N8QWebView16setHttpUserAgentERK7QString@@Qt_6_PRIVATE_API
libQt6WebView.so.6:_ZThn16_N8QWebView20runJavaScriptPrivateERK7QStringi@@Qt_6_PRIVATE_API
libQt6WebView.so.6:_ZThn16_N8QWebView4stopEv@@Qt_6_PRIVATE_API
libQt6WebView.so.6:_ZThn16_N8QWebView6goBackEv@@Qt_6_PRIVATE_API
libQt6WebView.so.6:_ZThn16_N8QWebView6reloadEv@@Qt_6_PRIVATE_API
libQt6WebView.so.6:_ZThn16_N8QWebView6setUrlERK4QUrl@@Qt_6_PRIVATE_API
libQt6WebView.so.6:_ZThn16_N8QWebView8loadHtmlERK7QStringRK4QUrl@@Qt_6_PRIVATE_API
libQt6WebView.so.6:_ZThn16_N8QWebView9goForwardEv@@Qt_6_PRIVATE_API
libQt6WebView.so.6:_ZThn16_N8QWebView9setCookieERK7QStringS2_S2_@@Qt_6_PRIVATE_API
libQt6WebView.so.6:_ZThn16_N8QWebViewD0Ev@@Qt_6_PRIVATE_API
libQt6WebView.so.6:_ZThn16_N8QWebViewD1Ev@@Qt_6_PRIVATE_API
libQt6WebView.so.6:_ZThn16_NK8QWebView12canGoForwardEv@@Qt_6_PRIVATE_API
libQt6WebView.so.6:_ZThn16_NK8QWebView12loadProgressEv@@Qt_6_PRIVATE_API
libQt6WebView.so.6:_ZThn16_NK8QWebView13httpUserAgentEv@@Qt_6_PRIVATE_API
libQt6WebView.so.6:_ZThn16_NK8QWebView3urlEv@@Qt_6_PRIVATE_API
libQt6WebView.so.6:_ZThn16_NK8QWebView5titleEv@@Qt_6_PRIVATE_API
libQt6WebView.so.6:_ZThn16_NK8QWebView9canGoBackEv@@Qt_6_PRIVATE_API
libQt6WebView.so.6:_ZThn16_NK8QWebView9isLoadingEv@@Qt_6_PRIVATE_API
libQt6WebView.so.6:_ZThn24_N8QWebView10setVisibleEb@@Qt_6_PRIVATE_API
libQt6WebView.so.6:_ZThn24_N8QWebView11setGeometryERK5QRect@@Qt_6_PRIVATE_API
libQt6WebView.so.6:_ZThn24_N8QWebView12updatePolishEv@@Qt_6_PRIVATE_API
libQt6WebView.so.6:_ZThn24_N8QWebView13setParentViewEP7QObject@@Qt_6_PRIVATE_API
libQt6WebView.so.6:_ZThn24_N8QWebView13setVisibilityEN7QWindow10VisibilityE@@Qt_6_PRIVATE_API
libQt6WebView.so.6:_ZThn24_N8QWebView4initEv@@Qt_6_PRIVATE_API
libQt6WebView.so.6:_ZThn24_N8QWebView8setFocusEb@@Qt_6_PRIVATE_API
libQt6WebView.so.6:_ZThn24_N8QWebViewD0Ev@@Qt_6_PRIVATE_API
libQt6WebView.so.6:_ZThn24_N8QWebViewD1Ev@@Qt_6_PRIVATE_API
libQt6WebView.so.6:_ZThn24_NK8QWebView10parentViewEv@@Qt_6_PRIVATE_API
libQt6WebViewQuick.so.6:NonQt
libQt6WebViewQuick.so.6:Qt_6
libQt6WebViewQuick.so.6:Qt_6_PRIVATE_API
libQt6WebViewQuick.so.6:_Z28qml_register_types_QtWebViewv@@Qt_6
libQt6WebViewQuick.so.6:_ZN13QQuickWebView10itemChangeEN10QQuickItem10ItemChangeERKNS0_14ItemChangeDataE@@Qt_6_PRIVATE_API
libQt6WebViewQuick.so.6:_ZN13QQuickWebView10urlChangedEv@@Qt_6_PRIVATE_API
libQt6WebViewQuick.so.6:_ZN13QQuickWebView11cookieAddedERK7QStringS2_@@Qt_6_PRIVATE_API
libQt6WebViewQuick.so.6:_ZN13QQuickWebView11qt_metacallEN11QMetaObject4CallEiPPv@@Qt_6_PRIVATE_API
libQt6WebViewQuick.so.6:_ZN13QQuickWebView11qt_metacastEPKc@@Qt_6_PRIVATE_API
libQt6WebViewQuick.so.6:_ZN13QQuickWebView12deleteCookieERK7QStringS2_@@Qt_6_PRIVATE_API
libQt6WebViewQuick.so.6:_ZN13QQuickWebView12takeCallbackEi@@Qt_6_PRIVATE_API
libQt6WebViewQuick.so.6:_ZN13QQuickWebView12titleChangedEv@@Qt_6_PRIVATE_API
libQt6WebViewQuick.so.6:_ZN13QQuickWebView13cookieRemovedERK7QStringS2_@@Qt_6_PRIVATE_API
libQt6WebViewQuick.so.6:_ZN13QQuickWebView13runJavaScriptERK7QStringRK8QJSValue@@Qt_6_PRIVATE_API
libQt6WebViewQuick.so.6:_ZN13QQuickWebView14loadingChangedEP24QQuickWebViewLoadRequest@@Qt_6_PRIVATE_API
libQt6WebViewQuick.so.6:_ZN13QQuickWebView14onFocusRequestEb@@Qt_6_PRIVATE_API
libQt6WebViewQuick.so.6:_ZN13QQuickWebView16deleteAllCookiesEv@@Qt_6_PRIVATE_API
libQt6WebViewQuick.so.6:_ZN13QQuickWebView16onLoadingChangedERK26QWebViewLoadRequestPrivate@@Qt_6_PRIVATE_API
libQt6WebViewQuick.so.6:_ZN13QQuickWebView16setHttpUserAgentERK7QString@@Qt_6_PRIVATE_API
libQt6WebViewQuick.so.6:_ZN13QQuickWebView19loadProgressChangedEv@@Qt_6_PRIVATE_API
libQt6WebViewQuick.so.6:_ZN13QQuickWebView20httpUserAgentChangedEv@@Qt_6_PRIVATE_API
libQt6WebViewQuick.so.6:_ZN13QQuickWebView20runJavaScriptPrivateERK7QStringi@@Qt_6_PRIVATE_API
libQt6WebViewQuick.so.6:_ZN13QQuickWebView21onRunJavaScriptResultEiRK8QVariant@@Qt_6_PRIVATE_API
libQt6WebViewQuick.so.6:_ZN13QQuickWebView4stopEv@@Qt_6_PRIVATE_API
libQt6WebViewQuick.so.6:_ZN13QQuickWebView6goBackEv@@Qt_6_PRIVATE_API
libQt6WebViewQuick.so.6:_ZN13QQuickWebView6reloadEv@@Qt_6_PRIVATE_API
libQt6WebViewQuick.so.6:_ZN13QQuickWebView6setUrlERK4QUrl@@Qt_6_PRIVATE_API
libQt6WebViewQuick.so.6:_ZN13QQuickWebView8loadHtmlERK7QStringRK4QUrl@@Qt_6_PRIVATE_API
libQt6WebViewQuick.so.6:_ZN13QQuickWebView9goForwardEv@@Qt_6_PRIVATE_API
libQt6WebViewQuick.so.6:_ZN13QQuickWebView9setCookieERK7QStringS2_S2_@@Qt_6_PRIVATE_API
libQt6WebViewQuick.so.6:_ZN13QQuickWebViewC1EP10QQuickItem@@Qt_6_PRIVATE_API
libQt6WebViewQuick.so.6:_ZN13QQuickWebViewC2EP10QQuickItem@@Qt_6_PRIVATE_API
libQt6WebViewQuick.so.6:_ZN13QQuickWebViewD0Ev@@Qt_6_PRIVATE_API
libQt6WebViewQuick.so.6:_ZN13QQuickWebViewD1Ev@@Qt_6_PRIVATE_API
libQt6WebViewQuick.so.6:_ZN13QQuickWebViewD2Ev@@Qt_6_PRIVATE_API
libQt6WebViewQuick.so.6:_ZN20QQuickViewController11qt_metacallEN11QMetaObject4CallEiPPv@@Qt_6_PRIVATE_API
libQt6WebViewQuick.so.6:_ZN20QQuickViewController11qt_metacastEPKc@@Qt_6_PRIVATE_API
libQt6WebViewQuick.so.6:_ZN20QQuickViewController12updatePolishEv@@Qt_6_PRIVATE_API
libQt6WebViewQuick.so.6:_ZN20QQuickViewController14geometryChangeERK6QRectFS2_@@Qt_6_PRIVATE_API
libQt6WebViewQuick.so.6:_ZN20QQuickViewController15onWindowChangedEP12QQuickWindow@@Qt_6_PRIVATE_API
libQt6WebViewQuick.so.6:_ZN20QQuickViewController16onVisibleChangedEv@@Qt_6_PRIVATE_API
libQt6WebViewQuick.so.6:_ZN20QQuickViewController17componentCompleteEv@@Qt_6_PRIVATE_API
libQt6WebViewQuick.so.6:_ZN20QQuickViewController20scheduleUpdatePolishEv@@Qt_6_PRIVATE_API
libQt6WebViewQuick.so.6:_ZN20QQuickViewController23onSceneGraphInvalidatedEv@@Qt_6_PRIVATE_API
libQt6WebViewQuick.so.6:_ZN20QQuickViewController7setViewEP21QNativeViewController@@Qt_6_PRIVATE_API
libQt6WebViewQuick.so.6:_ZN20QQuickViewControllerC1EP10QQuickItem@@Qt_6_PRIVATE_API
libQt6WebViewQuick.so.6:_ZN20QQuickViewControllerC2EP10QQuickItem@@Qt_6_PRIVATE_API
libQt6WebViewQuick.so.6:_ZN20QQuickViewControllerD0Ev@@Qt_6_PRIVATE_API
libQt6WebViewQuick.so.6:_ZN20QQuickViewControllerD1Ev@@Qt_6_PRIVATE_API
libQt6WebViewQuick.so.6:_ZN20QQuickViewControllerD2Ev@@Qt_6_PRIVATE_API
libQt6WebViewQuick.so.6:_ZN21QQuickWebViewSettings11qt_metacallEN11QMetaObject4CallEiPPv@@Qt_6_PRIVATE_API
libQt6WebViewQuick.so.6:_ZN21QQuickWebViewSettings11qt_metacastEPKc@@Qt_6_PRIVATE_API
libQt6WebViewQuick.so.6:_ZN21QQuickWebViewSettings18setAllowFileAccessEb@@Qt_6_PRIVATE_API
libQt6WebViewQuick.so.6:_ZN21QQuickWebViewSettings20setJavaScriptEnabledEb@@Qt_6_PRIVATE_API
libQt6WebViewQuick.so.6:_ZN21QQuickWebViewSettings22allowFileAccessChangedEv@@Qt_6_PRIVATE_API
libQt6WebViewQuick.so.6:_ZN21QQuickWebViewSettings22setLocalStorageEnabledEb@@Qt_6_PRIVATE_API
libQt6WebViewQuick.so.6:_ZN21QQuickWebViewSettings24javaScriptEnabledChangedEv@@Qt_6_PRIVATE_API
libQt6WebViewQuick.so.6:_ZN21QQuickWebViewSettings26localStorageEnabledChangedEv@@Qt_6_PRIVATE_API
libQt6WebViewQuick.so.6:_ZN21QQuickWebViewSettings32setLocalContentCanAccessFileUrlsEb@@Qt_6_PRIVATE_API
libQt6WebViewQuick.so.6:_ZN21QQuickWebViewSettings36localContentCanAccessFileUrlsChangedEv@@Qt_6_PRIVATE_API
libQt6WebViewQuick.so.6:_ZN21QQuickWebViewSettingsC1EP16QWebViewSettingsP7QObject@@Qt_6_PRIVATE_API
libQt6WebViewQuick.so.6:_ZN21QQuickWebViewSettingsC2EP16QWebViewSettingsP7QObject@@Qt_6_PRIVATE_API
libQt6WebViewQuick.so.6:_ZN21QQuickWebViewSettingsD0Ev@@Qt_6_PRIVATE_API
libQt6WebViewQuick.so.6:_ZN21QQuickWebViewSettingsD1Ev@@Qt_6_PRIVATE_API
libQt6WebViewQuick.so.6:_ZN21QQuickWebViewSettingsD2Ev@@Qt_6_PRIVATE_API
libQt6WebViewQuick.so.6:_ZN24QQuickWebViewLoadRequest11qt_metacallEN11QMetaObject4CallEiPPv@@Qt_6_PRIVATE_API
libQt6WebViewQuick.so.6:_ZN24QQuickWebViewLoadRequest11qt_metacastEPKc@@Qt_6_PRIVATE_API
libQt6WebViewQuick.so.6:_ZN24QQuickWebViewLoadRequestC1ERK26QWebViewLoadRequestPrivate@@Qt_6_PRIVATE_API
libQt6WebViewQuick.so.6:_ZN24QQuickWebViewLoadRequestC2ERK26QWebViewLoadRequestPrivate@@Qt_6_PRIVATE_API
libQt6WebViewQuick.so.6:_ZN24QQuickWebViewLoadRequestD0Ev@@Qt_6_PRIVATE_API
libQt6WebViewQuick.so.6:_ZN24QQuickWebViewLoadRequestD1Ev@@Qt_6_PRIVATE_API
libQt6WebViewQuick.so.6:_ZN24QQuickWebViewLoadRequestD2Ev@@Qt_6_PRIVATE_API
libQt6WebViewQuick.so.6:_ZNK13QQuickWebView10metaObjectEv@@Qt_6_PRIVATE_API
libQt6WebViewQuick.so.6:_ZNK13QQuickWebView12canGoForwardEv@@Qt_6_PRIVATE_API
libQt6WebViewQuick.so.6:_ZNK13QQuickWebView12loadProgressEv@@Qt_6_PRIVATE_API
libQt6WebViewQuick.so.6:_ZNK13QQuickWebView13httpUserAgentEv@@Qt_6_PRIVATE_API
libQt6WebViewQuick.so.6:_ZNK13QQuickWebView3urlEv@@Qt_6_PRIVATE_API
libQt6WebViewQuick.so.6:_ZNK13QQuickWebView5titleEv@@Qt_6_PRIVATE_API
libQt6WebViewQuick.so.6:_ZNK13QQuickWebView8settingsEv@@Qt_6_PRIVATE_API
libQt6WebViewQuick.so.6:_ZNK13QQuickWebView9canGoBackEv@@Qt_6_PRIVATE_API
libQt6WebViewQuick.so.6:_ZNK13QQuickWebView9isLoadingEv@@Qt_6_PRIVATE_API
libQt6WebViewQuick.so.6:_ZNK20QQuickViewController10metaObjectEv@@Qt_6_PRIVATE_API
libQt6WebViewQuick.so.6:_ZNK21QQuickWebViewSettings10metaObjectEv@@Qt_6_PRIVATE_API
libQt6WebViewQuick.so.6:_ZNK21QQuickWebViewSettings15allowFileAccessEv@@Qt_6_PRIVATE_API
libQt6WebViewQuick.so.6:_ZNK21QQuickWebViewSettings17javaScriptEnabledEv@@Qt_6_PRIVATE_API
libQt6WebViewQuick.so.6:_ZNK21QQuickWebViewSettings19localStorageEnabledEv@@Qt_6_PRIVATE_API
libQt6WebViewQuick.so.6:_ZNK21QQuickWebViewSettings29localContentCanAccessFileUrlsEv@@Qt_6_PRIVATE_API
libQt6WebViewQuick.so.6:_ZNK24QQuickWebViewLoadRequest10metaObjectEv@@Qt_6_PRIVATE_API
libQt6WebViewQuick.so.6:_ZNK24QQuickWebViewLoadRequest11errorStringEv@@Qt_6_PRIVATE_API
libQt6WebViewQuick.so.6:_ZNK24QQuickWebViewLoadRequest3urlEv@@Qt_6_PRIVATE_API
libQt6WebViewQuick.so.6:_ZNK24QQuickWebViewLoadRequest6statusEv@@Qt_6_PRIVATE_API
libQt6WebViewQuick.so.6:_ZThn16_N13QQuickWebViewD0Ev@@Qt_6_PRIVATE_API
libQt6WebViewQuick.so.6:_ZThn16_N13QQuickWebViewD1Ev@@Qt_6_PRIVATE_API
libQt6WebViewQuick.so.6:_ZThn16_N20QQuickViewController17componentCompleteEv@@Qt_6_PRIVATE_API
libQt6WebViewQuick.so.6:_ZThn16_N20QQuickViewControllerD0Ev@@Qt_6_PRIVATE_API
libQt6WebViewQuick.so.6:_ZThn16_N20QQuickViewControllerD1Ev@@Qt_6_PRIVATE_API
libQt6WebViewQuick.so.6:_ZThn48_N13QQuickWebView12deleteCookieERK7QStringS2_@@Qt_6_PRIVATE_API
libQt6WebViewQuick.so.6:_ZThn48_N13QQuickWebView16deleteAllCookiesEv@@Qt_6_PRIVATE_API
libQt6WebViewQuick.so.6:_ZThn48_N13QQuickWebView16setHttpUserAgentERK7QString@@Qt_6_PRIVATE_API
libQt6WebViewQuick.so.6:_ZThn48_N13QQuickWebView20runJavaScriptPrivateERK7QStringi@@Qt_6_PRIVATE_API
libQt6WebViewQuick.so.6:_ZThn48_N13QQuickWebView4stopEv@@Qt_6_PRIVATE_API
libQt6WebViewQuick.so.6:_ZThn48_N13QQuickWebView6goBackEv@@Qt_6_PRIVATE_API
libQt6WebViewQuick.so.6:_ZThn48_N13QQuickWebView6reloadEv@@Qt_6_PRIVATE_API
libQt6WebViewQuick.so.6:_ZThn48_N13QQuickWebView6setUrlERK4QUrl@@Qt_6_PRIVATE_API
libQt6WebViewQuick.so.6:_ZThn48_N13QQuickWebView8loadHtmlERK7QStringRK4QUrl@@Qt_6_PRIVATE_API
libQt6WebViewQuick.so.6:_ZThn48_N13QQuickWebView9goForwardEv@@Qt_6_PRIVATE_API
libQt6WebViewQuick.so.6:_ZThn48_N13QQuickWebView9setCookieERK7QStringS2_S2_@@Qt_6_PRIVATE_API
libQt6WebViewQuick.so.6:_ZThn48_N13QQuickWebViewD0Ev@@Qt_6_PRIVATE_API
libQt6WebViewQuick.so.6:_ZThn48_N13QQuickWebViewD1Ev@@Qt_6_PRIVATE_API
libQt6WebViewQuick.so.6:_ZThn48_NK13QQuickWebView12canGoForwardEv@@Qt_6_PRIVATE_API
libQt6WebViewQuick.so.6:_ZThn48_NK13QQuickWebView12loadProgressEv@@Qt_6_PRIVATE_API
libQt6WebViewQuick.so.6:_ZThn48_NK13QQuickWebView13httpUserAgentEv@@Qt_6_PRIVATE_API
libQt6WebViewQuick.so.6:_ZThn48_NK13QQuickWebView3urlEv@@Qt_6_PRIVATE_API
libQt6WebViewQuick.so.6:_ZThn48_NK13QQuickWebView5titleEv@@Qt_6_PRIVATE_API
libQt6WebViewQuick.so.6:_ZThn48_NK13QQuickWebView9canGoBackEv@@Qt_6_PRIVATE_API
libQt6WebViewQuick.so.6:_ZThn48_NK13QQuickWebView9isLoadingEv@@Qt_6_PRIVATE_API
